target datalayout = "e-m:e-p270:32:32-p271:32:32-p272:64:64-i64:64-i128:128-f80:128-n8:16:32:64-S128"
target triple = "x86_64-pc-linux-gnu"

%"class.gmx::BasicVector" = type { [3 x float] }
%"class.gmx::ArrayRef" = type { %"struct.gmx::ArrayRefIter", %"struct.gmx::ArrayRefIter" }
%"struct.gmx::ArrayRefIter" = type { ptr }
%"class.gmx::basic_mdspan" = type { %"class.gmx::accessor_basic", %"class.gmx::layout_right::mapping", ptr }
%"class.gmx::accessor_basic" = type { i8 }
%"class.gmx::layout_right::mapping" = type { %"class.gmx::extents" }
%"class.gmx::extents" = type { %"struct.gmx::detail::extents_analyse" }
%"struct.gmx::detail::extents_analyse" = type { %"struct.gmx::detail::extents_analyse.12" }
%"struct.gmx::detail::extents_analyse.12" = type { %"struct.gmx::detail::extents_analyse.13" }
%"struct.gmx::detail::extents_analyse.13" = type { i8 }
%"struct.std::array" = type { [9 x float] }
%"class.gmx::AffineTransformation" = type <{ %"class.gmx::MultiDimArray", %"class.gmx::BasicVector", [4 x i8] }>
%"class.gmx::MultiDimArray" = type { %"struct.std::array", %"class.gmx::basic_mdspan.14" }
%"class.gmx::basic_mdspan.14" = type { %"class.gmx::accessor_basic.15", %"class.gmx::layout_right::mapping", ptr }
%"class.gmx::accessor_basic.15" = type { i8 }

; Function Attrs: mustprogress nounwind uwtable
define linkonce_odr noundef i64 @_ZNK3gmx12ArrayRefIterINS_11BasicVectorIfEEEmiES3_(ptr noundef nonnull align 8 dereferenceable(8) %0, ptr %1) #0 comdat align 2 {
  %3 = alloca %"struct.gmx::ArrayRefIter", align 8
  %4 = alloca ptr, align 8
  %5 = getelementptr inbounds %"struct.gmx::ArrayRefIter", ptr %3, i32 0, i32 0
  store ptr %1, ptr %5, align 8
  store ptr %0, ptr %4, align 8
  %6 = load ptr, ptr %4, align 8
  %7 = getelementptr inbounds %"struct.gmx::ArrayRefIter", ptr %6, i32 0, i32 0
  %8 = load ptr, ptr %7, align 8
  %9 = getelementptr inbounds %"struct.gmx::ArrayRefIter", ptr %3, i32 0, i32 0
  %10 = load ptr, ptr %9, align 8
  %11 = ptrtoint ptr %8 to i64
  %12 = ptrtoint ptr %10 to i64
  %13 = sub i64 %11, %12
  %14 = sdiv exact i64 %13, 12
  ret i64 %14
}

; Function Attrs: mustprogress nounwind uwtable
define linkonce_odr void @_ZN3gmx11BasicVectorIfEC2Efff(ptr noundef nonnull align 4 dereferenceable(12) %0, float noundef %1, float noundef %2, float noundef %3) unnamed_addr #0 comdat align 2 {
  %5 = alloca ptr, align 8
  %6 = alloca float, align 4
  %7 = alloca float, align 4
  %8 = alloca float, align 4
  store ptr %0, ptr %5, align 8
  store float %1, ptr %6, align 4
  store float %2, ptr %7, align 4
  store float %3, ptr %8, align 4
  %9 = load ptr, ptr %5, align 8
  %10 = getelementptr inbounds %"class.gmx::BasicVector", ptr %9, i32 0, i32 0
  %11 = getelementptr inbounds [3 x float], ptr %10, i64 0, i64 0
  %12 = load float, ptr %6, align 4
  store float %12, ptr %11, align 4
  %13 = getelementptr inbounds float, ptr %11, i64 1
  %14 = load float, ptr %7, align 4
  store float %14, ptr %13, align 4
  %15 = getelementptr inbounds float, ptr %13, i64 1
  %16 = load float, ptr %8, align 4
  store float %16, ptr %15, align 4
  ret void
}

; Function Attrs: mustprogress nounwind uwtable
define linkonce_odr noundef float @_ZNK3gmx11BasicVectorIfEixEi(ptr noundef nonnull align 4 dereferenceable(12) %0, i32 noundef %1) #0 comdat align 2 {
  %3 = alloca ptr, align 8
  %4 = alloca i32, align 4
  store ptr %0, ptr %3, align 8
  store i32 %1, ptr %4, align 4
  %5 = load ptr, ptr %3, align 8
  %6 = getelementptr inbounds %"class.gmx::BasicVector", ptr %5, i32 0, i32 0
  %7 = load i32, ptr %4, align 4
  %8 = sext i32 %7 to i64
  %9 = getelementptr inbounds [3 x float], ptr %6, i64 0, i64 %8
  %10 = load float, ptr %9, align 4
  ret float %10
}

; Function Attrs: mustprogress nounwind uwtable
define linkonce_odr noundef ptr @_ZNSt14__array_traitsIfLm9EE6_S_ptrERA9_Kf(ptr noundef nonnull align 4 dereferenceable(36) %0) #0 comdat align 2 {
  %2 = alloca ptr, align 8
  store ptr %0, ptr %2, align 8
  %3 = load ptr, ptr %2, align 8
  %4 = getelementptr inbounds [9 x float], ptr %3, i64 0, i64 0
  ret ptr %4
}

; Function Attrs: mustprogress nounwind uwtable
define linkonce_odr noundef i64 @_ZN3gmx5boost14stl_interfaces6detail11common_diffINS_12ArrayRefIterINS_11BasicVectorIfEEEES7_EEDTmiscNSt11conditionalIXsr3std14is_convertibleIT_T0_EE5valueESA_S9_E4typeEfp_scSC_fp0_ES9_SA_(ptr %0, ptr %1) #0 comdat {
  %3 = alloca %"struct.gmx::ArrayRefIter", align 8
  %4 = alloca %"struct.gmx::ArrayRefIter", align 8
  %5 = alloca %"struct.gmx::ArrayRefIter", align 8
  %6 = alloca %"struct.gmx::ArrayRefIter", align 8
  %7 = getelementptr inbounds %"struct.gmx::ArrayRefIter", ptr %3, i32 0, i32 0
  store ptr %0, ptr %7, align 8
  %8 = getelementptr inbounds %"struct.gmx::ArrayRefIter", ptr %4, i32 0, i32 0
  store ptr %1, ptr %8, align 8
  call void @llvm.memcpy.p0.p0.i64(ptr align 8 %5, ptr align 8 %3, i64 8, i1 false)
  call void @llvm.memcpy.p0.p0.i64(ptr align 8 %6, ptr align 8 %4, i64 8, i1 false)
  %9 = getelementptr inbounds %"struct.gmx::ArrayRefIter", ptr %6, i32 0, i32 0
  %10 = load ptr, ptr %9, align 8
  %11 = call noundef i64 @_ZNK3gmx12ArrayRefIterINS_11BasicVectorIfEEEmiES3_(ptr noundef nonnull align 8 dereferenceable(8) %5, ptr %10) #10
  ret i64 %11
}

; Function Attrs: mustprogress nounwind uwtable
define linkonce_odr noundef nonnull align 8 dereferenceable(8) ptr @_ZN3gmx12ArrayRefIterINS_11BasicVectorIfEEEpLEl(ptr noundef nonnull align 8 dereferenceable(8) %0, i64 noundef %1) #0 comdat align 2 {
  %3 = alloca ptr, align 8
  %4 = alloca i64, align 8
  store ptr %0, ptr %3, align 8
  store i64 %1, ptr %4, align 8
  %5 = load ptr, ptr %3, align 8
  %6 = load i64, ptr %4, align 8
  %7 = getelementptr inbounds %"struct.gmx::ArrayRefIter", ptr %5, i32 0, i32 0
  %8 = load ptr, ptr %7, align 8
  %9 = getelementptr inbounds %"class.gmx::BasicVector", ptr %8, i64 %6
  store ptr %9, ptr %7, align 8
  ret ptr %5
}

; Function Attrs: mustprogress nounwind uwtable
define linkonce_odr noundef nonnull align 8 dereferenceable(8) ptr @_ZN3gmx5boost14stl_interfaces2v118iterator_interfaceINS_12ArrayRefIterINS_11BasicVectorIfEEEESt26random_access_iterator_tagS6_RS6_PS6_lvE7derivedEv(ptr noundef nonnull align 1 dereferenceable(1) %0) #0 comdat align 2 {
  %2 = alloca ptr, align 8
  store ptr %0, ptr %2, align 8
  %3 = load ptr, ptr %2, align 8
  ret ptr %3
}

; Function Attrs: mustprogress uwtable
define linkonce_odr { <2 x float>, float } @_ZNK3gmx11BasicVectorIfEplERKS1_(ptr noundef nonnull align 4 dereferenceable(12) %0, ptr noundef nonnull align 4 dereferenceable(12) %1) #2 comdat align 2 {
  %3 = alloca %"class.gmx::BasicVector", align 4
  %4 = alloca ptr, align 8
  %5 = alloca ptr, align 8
  %6 = alloca { <2 x float>, float }, align 8
  store ptr %0, ptr %4, align 8
  store ptr %1, ptr %5, align 8
  %7 = load ptr, ptr %4, align 8
  %8 = getelementptr inbounds %"class.gmx::BasicVector", ptr %7, i32 0, i32 0
  %9 = getelementptr inbounds [3 x float], ptr %8, i64 0, i64 0
  %10 = load float, ptr %9, align 4
  %11 = load ptr, ptr %5, align 8
  %12 = call noundef float @_ZNK3gmx11BasicVectorIfEixEi(ptr noundef nonnull align 4 dereferenceable(12) %11, i32 noundef 0)
  %13 = fadd float %10, %12
  %14 = getelementptr inbounds %"class.gmx::BasicVector", ptr %7, i32 0, i32 0
  %15 = getelementptr inbounds [3 x float], ptr %14, i64 0, i64 1
  %16 = load float, ptr %15, align 4
  %17 = load ptr, ptr %5, align 8
  %18 = call noundef float @_ZNK3gmx11BasicVectorIfEixEi(ptr noundef nonnull align 4 dereferenceable(12) %17, i32 noundef 1)
  %19 = fadd float %16, %18
  %20 = getelementptr inbounds %"class.gmx::BasicVector", ptr %7, i32 0, i32 0
  %21 = getelementptr inbounds [3 x float], ptr %20, i64 0, i64 2
  %22 = load float, ptr %21, align 4
  %23 = load ptr, ptr %5, align 8
  %24 = call noundef float @_ZNK3gmx11BasicVectorIfEixEi(ptr noundef nonnull align 4 dereferenceable(12) %23, i32 noundef 2)
  %25 = fadd float %22, %24
  call void @_ZN3gmx11BasicVectorIfEC2Efff(ptr noundef nonnull align 4 dereferenceable(12) %3, float noundef %13, float noundef %19, float noundef %25)
  %26 = getelementptr inbounds %"class.gmx::BasicVector", ptr %3, i32 0, i32 0
  call void @llvm.memcpy.p0.p0.i64(ptr align 8 %6, ptr align 4 %26, i64 12, i1 false)
  %27 = load { <2 x float>, float }, ptr %6, align 8
  ret { <2 x float>, float } %27
}

; Function Attrs: mustprogress nounwind uwtable
define linkonce_odr void @_ZN3gmx12basic_mdspanIKfNS_7extentsIJLl3ELl3EEEENS_12layout_rightENS_14accessor_basicIS1_EEEC2EPS1_RKNS4_7mappingIS3_EE(ptr noundef nonnull align 8 dereferenceable(16) %0, ptr noundef %1, ptr noundef nonnull align 1 dereferenceable(1) %2) unnamed_addr #0 comdat align 2 {
  %4 = alloca ptr, align 8
  %5 = alloca ptr, align 8
  %6 = alloca ptr, align 8
  store ptr %0, ptr %4, align 8
  store ptr %1, ptr %5, align 8
  store ptr %2, ptr %6, align 8
  %7 = load ptr, ptr %4, align 8
  %8 = getelementptr inbounds %"class.gmx::basic_mdspan", ptr %7, i32 0, i32 1
  %9 = load ptr, ptr %6, align 8
  call void @llvm.memcpy.p0.p0.i64(ptr align 1 %8, ptr align 1 %9, i64 1, i1 false)
  %10 = getelementptr inbounds %"class.gmx::basic_mdspan", ptr %7, i32 0, i32 2
  %11 = load ptr, ptr %5, align 8
  store ptr %11, ptr %10, align 8
  ret void
}

; Function Attrs: mustprogress nounwind uwtable
define linkonce_odr void @_ZNK3gmx12basic_mdspanIfNS_7extentsIJLl3ELl3EEEENS_12layout_rightENS_14accessor_basicIfEEE7mappingEv(ptr noundef nonnull align 8 dereferenceable(16) %0) #0 comdat align 2 {
  %2 = alloca %"class.gmx::layout_right::mapping", align 1
  %3 = alloca ptr, align 8
  store ptr %0, ptr %3, align 8
  %4 = load ptr, ptr %3, align 8
  %5 = getelementptr inbounds %"class.gmx::basic_mdspan.14", ptr %4, i32 0, i32 1
  call void @llvm.memcpy.p0.p0.i64(ptr align 1 %2, ptr align 1 %5, i64 1, i1 false)
  ret void
}

; Function Attrs: mustprogress nounwind uwtable
define linkonce_odr noundef ptr @_ZNKSt5arrayIfLm9EE4dataEv(ptr noundef nonnull align 4 dereferenceable(36) %0) #0 comdat align 2 {
  %2 = alloca ptr, align 8
  store ptr %0, ptr %2, align 8
  %3 = load ptr, ptr %2, align 8
  %4 = getelementptr inbounds %"struct.std::array", ptr %3, i32 0, i32 0
  %5 = call noundef ptr @_ZNSt14__array_traitsIfLm9EE6_S_ptrERA9_Kf(ptr noundef nonnull align 4 dereferenceable(36) %4) #10
  ret ptr %5
}

; Function Attrs: mustprogress nounwind uwtable
define linkonce_odr noundef zeroext i1 @_ZN3gmx5boost14stl_interfaces2v1eqINS_12ArrayRefIterINS_11BasicVectorIfEEEES7_vEEDTcmclsr6v1_dtlE16derived_iteratorfp_Eeqclsr6detailE11common_difffp_fp0_ELi0EET_T0_(ptr %0, ptr %1) #0 comdat {
  %3 = alloca %"struct.gmx::ArrayRefIter", align 8
  %4 = alloca %"struct.gmx::ArrayRefIter", align 8
  %5 = alloca %"struct.gmx::ArrayRefIter", align 8
  %6 = alloca %"struct.gmx::ArrayRefIter", align 8
  %7 = getelementptr inbounds %"struct.gmx::ArrayRefIter", ptr %3, i32 0, i32 0
  store ptr %0, ptr %7, align 8
  %8 = getelementptr inbounds %"struct.gmx::ArrayRefIter", ptr %4, i32 0, i32 0
  store ptr %1, ptr %8, align 8
  call void @llvm.memcpy.p0.p0.i64(ptr align 8 %5, ptr align 8 %3, i64 8, i1 false)
  call void @llvm.memcpy.p0.p0.i64(ptr align 8 %6, ptr align 8 %4, i64 8, i1 false)
  %9 = getelementptr inbounds %"struct.gmx::ArrayRefIter", ptr %5, i32 0, i32 0
  %10 = load ptr, ptr %9, align 8
  %11 = getelementptr inbounds %"struct.gmx::ArrayRefIter", ptr %6, i32 0, i32 0
  %12 = load ptr, ptr %11, align 8
  %13 = call noundef i64 @_ZN3gmx5boost14stl_interfaces6detail11common_diffINS_12ArrayRefIterINS_11BasicVectorIfEEEES7_EEDTmiscNSt11conditionalIXsr3std14is_convertibleIT_T0_EE5valueESA_S9_E4typeEfp_scSC_fp0_ES9_SA_(ptr %10, ptr %12) #10
  %14 = icmp eq i64 %13, 0
  ret i1 %14
}

; Function Attrs: mustprogress nounwind uwtable
define linkonce_odr noundef nonnull align 8 dereferenceable(8) ptr @_ZN3gmx5boost14stl_interfaces2v118iterator_interfaceINS_12ArrayRefIterINS_11BasicVectorIfEEEESt26random_access_iterator_tagS6_RS6_PS6_lvEppIS7_EEDTcmpLclsr3stdE7declvalIRT_EEcvlLi1Eclsr3stdE7declvalISE_EEEv(ptr noundef nonnull align 1 dereferenceable(1) %0) #0 comdat align 2 {
  %2 = alloca ptr, align 8
  store ptr %0, ptr %2, align 8
  %3 = load ptr, ptr %2, align 8
  %4 = call noundef nonnull align 8 dereferenceable(8) ptr @_ZN3gmx5boost14stl_interfaces2v118iterator_interfaceINS_12ArrayRefIterINS_11BasicVectorIfEEEESt26random_access_iterator_tagS6_RS6_PS6_lvE7derivedEv(ptr noundef nonnull align 1 dereferenceable(1) %3) #10
  %5 = call noundef nonnull align 8 dereferenceable(8) ptr @_ZN3gmx12ArrayRefIterINS_11BasicVectorIfEEEpLEl(ptr noundef nonnull align 8 dereferenceable(8) %4, i64 noundef 1) #10
  %6 = call noundef nonnull align 8 dereferenceable(8) ptr @_ZN3gmx5boost14stl_interfaces2v118iterator_interfaceINS_12ArrayRefIterINS_11BasicVectorIfEEEESt26random_access_iterator_tagS6_RS6_PS6_lvE7derivedEv(ptr noundef nonnull align 1 dereferenceable(1) %3) #10
  ret ptr %6
}

; Function Attrs: mustprogress uwtable
define linkonce_odr noundef nonnull align 4 dereferenceable(12) ptr @_ZN3gmx11BasicVectorIfEpLERKS1_(ptr noundef nonnull align 4 dereferenceable(12) %0, ptr noundef nonnull align 4 dereferenceable(12) %1) #6 comdat align 2 {
  %3 = alloca ptr, align 8
  %4 = alloca ptr, align 8
  %5 = alloca %"class.gmx::BasicVector", align 4
  %6 = alloca { <2 x float>, float }, align 8
  store ptr %0, ptr %3, align 8
  store ptr %1, ptr %4, align 8
  %7 = load ptr, ptr %3, align 8
  %8 = load ptr, ptr %4, align 8
  %9 = call { <2 x float>, float } @_ZNK3gmx11BasicVectorIfEplERKS1_(ptr noundef nonnull align 4 dereferenceable(12) %7, ptr noundef nonnull align 4 dereferenceable(12) %8)
  %10 = getelementptr inbounds %"class.gmx::BasicVector", ptr %5, i32 0, i32 0
  store { <2 x float>, float } %9, ptr %6, align 8
  call void @llvm.memcpy.p0.p0.i64(ptr align 4 %10, ptr align 8 %6, i64 12, i1 false)
  call void @llvm.memcpy.p0.p0.i64(ptr align 4 %7, ptr align 4 %5, i64 12, i1 false)
  ret ptr %7
}

; Function Attrs: mustprogress nounwind uwtable
define linkonce_odr ptr @_ZNK3gmx13MultiDimArrayISt5arrayIfLm9EENS_7extentsIJLl3ELl3EEEENS_12layout_rightEE11asConstViewEv(ptr noundef nonnull align 8 dereferenceable(56) %0) #0 comdat align 2 {
  %2 = alloca %"class.gmx::basic_mdspan", align 8
  %3 = alloca ptr, align 8
  %4 = alloca %"class.gmx::layout_right::mapping", align 1
  store ptr %0, ptr %3, align 8
  %5 = load ptr, ptr %3, align 8
  %6 = getelementptr inbounds %"class.gmx::MultiDimArray", ptr %5, i32 0, i32 0
  %7 = call noundef ptr @_ZNKSt5arrayIfLm9EE4dataEv(ptr noundef nonnull align 4 dereferenceable(36) %6) #10
  %8 = getelementptr inbounds %"class.gmx::MultiDimArray", ptr %5, i32 0, i32 1
  call void @_ZNK3gmx12basic_mdspanIfNS_7extentsIJLl3ELl3EEEENS_12layout_rightENS_14accessor_basicIfEEE7mappingEv(ptr noundef nonnull align 8 dereferenceable(16) %8) #10
  call void @_ZN3gmx12basic_mdspanIKfNS_7extentsIJLl3ELl3EEEENS_12layout_rightENS_14accessor_basicIS1_EEEC2EPS1_RKNS4_7mappingIS3_EE(ptr noundef nonnull align 8 dereferenceable(16) %2, ptr noundef %7, ptr noundef nonnull align 1 dereferenceable(1) %4) #10
  %9 = getelementptr inbounds i8, ptr %2, i64 8
  %10 = load ptr, ptr %9, align 8
  ret ptr %10
}

; Function Attrs: mustprogress nounwind uwtable
define linkonce_odr noundef nonnull align 4 dereferenceable(12) ptr @_ZNK3gmx12ArrayRefIterINS_11BasicVectorIfEEEdeEv(ptr noundef nonnull align 8 dereferenceable(8) %0) #0 comdat align 2 {
  %2 = alloca ptr, align 8
  store ptr %0, ptr %2, align 8
  %3 = load ptr, ptr %2, align 8
  %4 = getelementptr inbounds %"struct.gmx::ArrayRefIter", ptr %3, i32 0, i32 0
  %5 = load ptr, ptr %4, align 8
  ret ptr %5
}

; Function Attrs: mustprogress nounwind uwtable
define linkonce_odr noundef zeroext i1 @_ZN3gmx5boost14stl_interfaces2v1neINS_12ArrayRefIterINS_11BasicVectorIfEEEES7_EEDTcmclsr6v1_dtlE16derived_iteratorfp_Enteqfp_fp0_ET_T0_(ptr %0, ptr %1) #0 comdat {
  %3 = alloca %"struct.gmx::ArrayRefIter", align 8
  %4 = alloca %"struct.gmx::ArrayRefIter", align 8
  %5 = alloca %"struct.gmx::ArrayRefIter", align 8
  %6 = alloca %"struct.gmx::ArrayRefIter", align 8
  %7 = getelementptr inbounds %"struct.gmx::ArrayRefIter", ptr %3, i32 0, i32 0
  store ptr %0, ptr %7, align 8
  %8 = getelementptr inbounds %"struct.gmx::ArrayRefIter", ptr %4, i32 0, i32 0
  store ptr %1, ptr %8, align 8
  call void @llvm.memcpy.p0.p0.i64(ptr align 8 %5, ptr align 8 %3, i64 8, i1 false)
  call void @llvm.memcpy.p0.p0.i64(ptr align 8 %6, ptr align 8 %4, i64 8, i1 false)
  %9 = getelementptr inbounds %"struct.gmx::ArrayRefIter", ptr %5, i32 0, i32 0
  %10 = load ptr, ptr %9, align 8
  %11 = getelementptr inbounds %"struct.gmx::ArrayRefIter", ptr %6, i32 0, i32 0
  %12 = load ptr, ptr %11, align 8
  %13 = call noundef zeroext i1 @_ZN3gmx5boost14stl_interfaces2v1eqINS_12ArrayRefIterINS_11BasicVectorIfEEEES7_vEEDTcmclsr6v1_dtlE16derived_iteratorfp_Eeqclsr6detailE11common_difffp_fp0_ELi0EET_T0_(ptr %10, ptr %12) #10
  %14 = xor i1 %13, true
  ret i1 %14
}

; Function Attrs: mustprogress nounwind uwtable
define linkonce_odr ptr @_ZNK3gmx8ArrayRefINS_11BasicVectorIfEEE3endEv(ptr noundef nonnull align 8 dereferenceable(16) %0) #0 comdat align 2 {
  %2 = alloca %"struct.gmx::ArrayRefIter", align 8
  %3 = alloca ptr, align 8
  store ptr %0, ptr %3, align 8
  %4 = load ptr, ptr %3, align 8
  %5 = getelementptr inbounds %"class.gmx::ArrayRef", ptr %4, i32 0, i32 1
  call void @llvm.memcpy.p0.p0.i64(ptr align 8 %2, ptr align 8 %5, i64 8, i1 false)
  %6 = getelementptr inbounds %"struct.gmx::ArrayRefIter", ptr %2, i32 0, i32 0
  %7 = load ptr, ptr %6, align 8
  ret ptr %7
}

; Function Attrs: mustprogress nounwind uwtable
define linkonce_odr ptr @_ZNK3gmx8ArrayRefINS_11BasicVectorIfEEE5beginEv(ptr noundef nonnull align 8 dereferenceable(16) %0) #0 comdat align 2 {
  %2 = alloca %"struct.gmx::ArrayRefIter", align 8
  %3 = alloca ptr, align 8
  store ptr %0, ptr %3, align 8
  %4 = load ptr, ptr %3, align 8
  %5 = getelementptr inbounds %"class.gmx::ArrayRef", ptr %4, i32 0, i32 0
  call void @llvm.memcpy.p0.p0.i64(ptr align 8 %2, ptr align 8 %5, i64 8, i1 false)
  %6 = getelementptr inbounds %"struct.gmx::ArrayRefIter", ptr %2, i32 0, i32 0
  %7 = load ptr, ptr %6, align 8
  ret ptr %7
}

; Function Attrs: mustprogress nounwind uwtable
define linkonce_odr void @_ZN3gmx12ArrayRefIterINS_11BasicVectorIfEEEC2EPS2_(ptr noundef nonnull align 8 dereferenceable(8) %0, ptr noundef %1) unnamed_addr #0 comdat align 2 {
  %3 = alloca ptr, align 8
  %4 = alloca ptr, align 8
  store ptr %0, ptr %3, align 8
  store ptr %1, ptr %4, align 8
  %5 = load ptr, ptr %3, align 8
  %6 = getelementptr inbounds %"struct.gmx::ArrayRefIter", ptr %5, i32 0, i32 0
  %7 = load ptr, ptr %4, align 8
  store ptr %7, ptr %6, align 8
  ret void
}

; Function Attrs: mustprogress uwtable
define void @_ZNK3gmx20AffineTransformationclENS_8ArrayRefINS_11BasicVectorIfEEEE(ptr noundef nonnull align 8 dereferenceable(68) %0, ptr %1, ptr %2) #2 align 2 {
  %4 = alloca %"class.gmx::ArrayRef", align 8
  %5 = alloca ptr, align 8
  %6 = alloca ptr, align 8
  %7 = alloca %"struct.gmx::ArrayRefIter", align 8
  %8 = alloca %"struct.gmx::ArrayRefIter", align 8
  %9 = alloca %"struct.gmx::ArrayRefIter", align 8
  %10 = alloca %"struct.gmx::ArrayRefIter", align 8
  %11 = alloca ptr, align 8
  %12 = alloca %"class.gmx::basic_mdspan", align 8
  %13 = getelementptr inbounds { ptr, ptr }, ptr %4, i32 0, i32 0
  store ptr %1, ptr %13, align 8
  %14 = getelementptr inbounds { ptr, ptr }, ptr %4, i32 0, i32 1
  store ptr %2, ptr %14, align 8
  store ptr %0, ptr %5, align 8
  %15 = load ptr, ptr %5, align 8
  store ptr %4, ptr %6, align 8
  %16 = load ptr, ptr %6, align 8
  %17 = call ptr @_ZNK3gmx8ArrayRefINS_11BasicVectorIfEEE5beginEv(ptr noundef nonnull align 8 dereferenceable(16) %16)
  %18 = getelementptr inbounds %"struct.gmx::ArrayRefIter", ptr %7, i32 0, i32 0
  store ptr %17, ptr %18, align 8
  %19 = load ptr, ptr %6, align 8
  %20 = call ptr @_ZNK3gmx8ArrayRefINS_11BasicVectorIfEEE3endEv(ptr noundef nonnull align 8 dereferenceable(16) %19)
  %21 = getelementptr inbounds %"struct.gmx::ArrayRefIter", ptr %8, i32 0, i32 0
  store ptr %20, ptr %21, align 8
  br label %22

22:                                               ; preds = %39, %3
  call void @llvm.memcpy.p0.p0.i64(ptr align 8 %9, ptr align 8 %7, i64 8, i1 false)
  call void @llvm.memcpy.p0.p0.i64(ptr align 8 %10, ptr align 8 %8, i64 8, i1 false)
  %23 = getelementptr inbounds %"struct.gmx::ArrayRefIter", ptr %9, i32 0, i32 0
  %24 = load ptr, ptr %23, align 8
  %25 = getelementptr inbounds %"struct.gmx::ArrayRefIter", ptr %10, i32 0, i32 0
  %26 = load ptr, ptr %25, align 8
  %27 = call noundef zeroext i1 @_ZN3gmx5boost14stl_interfaces2v1neINS_12ArrayRefIterINS_11BasicVectorIfEEEES7_EEDTcmclsr6v1_dtlE16derived_iteratorfp_Enteqfp_fp0_ET_T0_(ptr %24, ptr %26) #10
  br i1 %27, label %28, label %41

28:                                               ; preds = %22
  %29 = call noundef nonnull align 4 dereferenceable(12) ptr @_ZNK3gmx12ArrayRefIterINS_11BasicVectorIfEEEdeEv(ptr noundef nonnull align 8 dereferenceable(8) %7) #10
  store ptr %29, ptr %11, align 8
  %30 = getelementptr inbounds %"class.gmx::AffineTransformation", ptr %15, i32 0, i32 0
  %31 = call ptr @_ZNK3gmx13MultiDimArrayISt5arrayIfLm9EENS_7extentsIJLl3ELl3EEEENS_12layout_rightEE11asConstViewEv(ptr noundef nonnull align 8 dereferenceable(56) %30) #10
  %32 = getelementptr inbounds i8, ptr %12, i64 8
  store ptr %31, ptr %32, align 8
  %33 = load ptr, ptr %11, align 8
  %34 = getelementptr inbounds i8, ptr %12, i64 8
  %35 = load ptr, ptr %34, align 8
  call void @_ZN3gmx20matrixVectorMultiplyENS_12basic_mdspanIKfNS_7extentsIJLl3ELl3EEEENS_12layout_rightENS_14accessor_basicIS1_EEEEPNS_11BasicVectorIfEE(ptr %35, ptr noundef %33)
  %36 = getelementptr inbounds %"class.gmx::AffineTransformation", ptr %15, i32 0, i32 1
  %37 = load ptr, ptr %11, align 8
  %38 = call noundef nonnull align 4 dereferenceable(12) ptr @_ZN3gmx11BasicVectorIfEpLERKS1_(ptr noundef nonnull align 4 dereferenceable(12) %37, ptr noundef nonnull align 4 dereferenceable(12) %36)
  br label %39

39:                                               ; preds = %28
  %40 = call noundef nonnull align 8 dereferenceable(8) ptr @_ZN3gmx5boost14stl_interfaces2v118iterator_interfaceINS_12ArrayRefIterINS_11BasicVectorIfEEEESt26random_access_iterator_tagS6_RS6_PS6_lvEppIS7_EEDTcmpLclsr3stdE7declvalIRT_EEcvlLi1Eclsr3stdE7declvalISE_EEEv(ptr noundef nonnull align 1 dereferenceable(1) %7) #10
  br label %22

41:                                               ; preds = %22
  ret void
}

; Function Attrs: mustprogress nounwind uwtable
define linkonce_odr void @_ZN3gmx8ArrayRefINS_11BasicVectorIfEEEC2EPS2_S4_(ptr noundef nonnull align 8 dereferenceable(16) %0, ptr noundef %1, ptr noundef %2) unnamed_addr #0 comdat align 2 {
  %4 = alloca ptr, align 8
  %5 = alloca ptr, align 8
  %6 = alloca ptr, align 8
  store ptr %0, ptr %4, align 8
  store ptr %1, ptr %5, align 8
  store ptr %2, ptr %6, align 8
  %7 = load ptr, ptr %4, align 8
  %8 = getelementptr inbounds %"class.gmx::ArrayRef", ptr %7, i32 0, i32 0
  %9 = load ptr, ptr %5, align 8
  call void @_ZN3gmx12ArrayRefIterINS_11BasicVectorIfEEEC2EPS2_(ptr noundef nonnull align 8 dereferenceable(8) %8, ptr noundef %9) #10
  %10 = getelementptr inbounds %"class.gmx::ArrayRef", ptr %7, i32 0, i32 1
  %11 = load ptr, ptr %6, align 8
  call void @_ZN3gmx12ArrayRefIterINS_11BasicVectorIfEEEC2EPS2_(ptr noundef nonnull align 8 dereferenceable(8) %10, ptr noundef %11) #10
  ret void
}

; Function Attrs: mustprogress uwtable
define void @_ZNK3gmx20AffineTransformationclEPNS_11BasicVectorIfEE(ptr noundef nonnull align 8 dereferenceable(68) %0, ptr noundef %1) #2 align 2 {
  %3 = alloca ptr, align 8
  %4 = alloca ptr, align 8
  %5 = alloca %"class.gmx::ArrayRef", align 8
  store ptr %0, ptr %3, align 8
  store ptr %1, ptr %4, align 8
  %6 = load ptr, ptr %3, align 8
  %7 = load ptr, ptr %4, align 8
  %8 = load ptr, ptr %4, align 8
  %9 = getelementptr inbounds %"class.gmx::BasicVector", ptr %8, i64 1
  call void @_ZN3gmx8ArrayRefINS_11BasicVectorIfEEEC2EPS2_S4_(ptr noundef nonnull align 8 dereferenceable(16) %5, ptr noundef %7, ptr noundef %9)
  %10 = getelementptr inbounds { ptr, ptr }, ptr %5, i32 0, i32 0
  %11 = load ptr, ptr %10, align 8
  %12 = getelementptr inbounds { ptr, ptr }, ptr %5, i32 0, i32 1
  %13 = load ptr, ptr %12, align 8
  call void @_ZNK3gmx20AffineTransformationclENS_8ArrayRefINS_11BasicVectorIfEEEE(ptr noundef nonnull align 8 dereferenceable(68) %6, ptr %11, ptr %13)
  ret void
}