; Function Attrs: mustprogress uwtable
define void @_ZNK3gmx20AffineTransformationclEPNS_11BasicVectorIfEE(ptr noundef nonnull align 8 dereferenceable(68) %0, ptr noundef %1) local_unnamed_addr #13 align 2 {
.lr.ph.i:
  %2 = getelementptr inbounds i8, ptr %0, i64 56
  %3 = getelementptr inbounds i8, ptr %0, i64 64
  tail call void @_ZN3gmx20matrixVectorMultiplyENS_12basic_mdspanIKfNS_7extentsIJLl3ELl3EEEENS_12layout_rightENS_14accessor_basicIS1_EEEEPNS_11BasicVectorIfEE(ptr nonnull %0, ptr noundef nonnull %1)
  %4 = load <2 x float>, ptr %1, align 4
  %5 = load <2 x float>, ptr %2, align 8
  %6 = fadd <2 x float> %4, %5
  %7 = getelementptr inbounds i8, ptr %1, i64 8
  %8 = load float, ptr %7, align 4
  %9 = load float, ptr %3, align 8
  %10 = fadd float %8, %9
  store <2 x float> %6, ptr %1, align 4
  store float %10, ptr %7, align 4
  ret void
}